; Function Attrs: mustprogress uwtable
define dso_local void @_ZN24cmComputeLinkInformation16AddLinkExtensionERKNSt7__cxx1112basic_stringIcSt11char_traitsIcESaIcEEENS_8LinkTypeE(ptr noundef nonnull align 8 dereferenceable(2960) %0, ptr noundef nonnull align 8 dereferenceable(32) %1, i32 noundef %2) local_unnamed_addr #3 align 2 {
  %4 = tail call noundef zeroext i1 @_ZNKSt7__cxx1112basic_stringIcSt11char_traitsIcESaIcEE5emptyEv(ptr noundef nonnull align 8 dereferenceable(32) %1) #19
  br i1 %4, label %_ZNSt6vectorINSt7__cxx1112basic_stringIcSt11char_traitsIcESaIcEEESaIS5_EE12emplace_backIJRKS5_EEERS5_DpOT_.exit11, label %5

5:                                                ; preds = %3
  switch i32 %2, label %_ZNSt6vectorINSt7__cxx1112basic_stringIcSt11char_traitsIcESaIcEEESaIS5_EE12emplace_backIJRKS5_EEERS5_DpOT_.exit [
    i32 1, label %6
    i32 2, label %16
  ]

6:                                                ; preds = %5
  %7 = getelementptr inbounds i8, ptr %0, i64 688
  %8 = load ptr, ptr %7, align 8
  %9 = getelementptr inbounds i8, ptr %0, i64 696
  %10 = load ptr, ptr %9, align 8
  %.not.i = icmp eq ptr %8, %10
  br i1 %.not.i, label %14, label %11

11:                                               ; preds = %6
  tail call void @_ZNSt7__cxx1112basic_stringIcSt11char_traitsIcESaIcEEC1ERKS4_(ptr noundef nonnull align 8 dereferenceable(32) %8, ptr noundef nonnull align 8 dereferenceable(32) %1)
  %12 = load ptr, ptr %7, align 8
  %13 = getelementptr inbounds i8, ptr %12, i64 32
  store ptr %13, ptr %7, align 8
  br label %_ZNSt6vectorINSt7__cxx1112basic_stringIcSt11char_traitsIcESaIcEEESaIS5_EE12emplace_backIJRKS5_EEERS5_DpOT_.exit

14:                                               ; preds = %6
  %15 = getelementptr inbounds i8, ptr %0, i64 680
  tail call void @_ZNSt6vectorINSt7__cxx1112basic_stringIcSt11char_traitsIcESaIcEEESaIS5_EE17_M_realloc_insertIJRKS5_EEEvN9__gnu_cxx17__normal_iteratorIPS5_S7_EEDpOT_(ptr noundef nonnull align 8 dereferenceable(24) %15, ptr %8, ptr noundef nonnull align 8 dereferenceable(32) %1)
  br label %_ZNSt6vectorINSt7__cxx1112basic_stringIcSt11char_traitsIcESaIcEEESaIS5_EE12emplace_backIJRKS5_EEERS5_DpOT_.exit

16:                                               ; preds = %5
  %17 = getelementptr inbounds i8, ptr %0, i64 712
  %18 = load ptr, ptr %17, align 8
  %19 = getelementptr inbounds i8, ptr %0, i64 720
  %20 = load ptr, ptr %19, align 8
  %.not.i6 = icmp eq ptr %18, %20
  br i1 %.not.i6, label %24, label %21

21:                                               ; preds = %16
  tail call void @_ZNSt7__cxx1112basic_stringIcSt11char_traitsIcESaIcEEC1ERKS4_(ptr noundef nonnull align 8 dereferenceable(32) %18, ptr noundef nonnull align 8 dereferenceable(32) %1)
  %22 = load ptr, ptr %17, align 8
  %23 = getelementptr inbounds i8, ptr %22, i64 32
  store ptr %23, ptr %17, align 8
  br label %_ZNSt6vectorINSt7__cxx1112basic_stringIcSt11char_traitsIcESaIcEEESaIS5_EE12emplace_backIJRKS5_EEERS5_DpOT_.exit

24:                                               ; preds = %16
  %25 = getelementptr inbounds i8, ptr %0, i64 704
  tail call void @_ZNSt6vectorINSt7__cxx1112basic_stringIcSt11char_traitsIcESaIcEEESaIS5_EE17_M_realloc_insertIJRKS5_EEEvN9__gnu_cxx17__normal_iteratorIPS5_S7_EEDpOT_(ptr noundef nonnull align 8 dereferenceable(24) %25, ptr %18, ptr noundef nonnull align 8 dereferenceable(32) %1)
  br label %_ZNSt6vectorINSt7__cxx1112basic_stringIcSt11char_traitsIcESaIcEEESaIS5_EE12emplace_backIJRKS5_EEERS5_DpOT_.exit

_ZNSt6vectorINSt7__cxx1112basic_stringIcSt11char_traitsIcESaIcEEESaIS5_EE12emplace_backIJRKS5_EEERS5_DpOT_.exit: ; preds = %24, %21, %14, %11, %5
  %26 = getelementptr inbounds i8, ptr %0, i64 736
  %27 = load ptr, ptr %26, align 8
  %28 = getelementptr inbounds i8, ptr %0, i64 744
  %29 = load ptr, ptr %28, align 8
  %.not.i9 = icmp eq ptr %27, %29
  br i1 %.not.i9, label %33, label %30

30:                                               ; preds = %_ZNSt6vectorINSt7__cxx1112basic_stringIcSt11char_traitsIcESaIcEEESaIS5_EE12emplace_backIJRKS5_EEERS5_DpOT_.exit
  tail call void @_ZNSt7__cxx1112basic_stringIcSt11char_traitsIcESaIcEEC1ERKS4_(ptr noundef nonnull align 8 dereferenceable(32) %27, ptr noundef nonnull align 8 dereferenceable(32) %1)
  %31 = load ptr, ptr %26, align 8
  %32 = getelementptr inbounds i8, ptr %31, i64 32
  store ptr %32, ptr %26, align 8
  br label %_ZNSt6vectorINSt7__cxx1112basic_stringIcSt11char_traitsIcESaIcEEESaIS5_EE12emplace_backIJRKS5_EEERS5_DpOT_.exit11

33:                                               ; preds = %_ZNSt6vectorINSt7__cxx1112basic_stringIcSt11char_traitsIcESaIcEEESaIS5_EE12emplace_backIJRKS5_EEERS5_DpOT_.exit
  %34 = getelementptr inbounds i8, ptr %0, i64 728
  tail call void @_ZNSt6vectorINSt7__cxx1112basic_stringIcSt11char_traitsIcESaIcEEESaIS5_EE17_M_realloc_insertIJRKS5_EEEvN9__gnu_cxx17__normal_iteratorIPS5_S7_EEDpOT_(ptr noundef nonnull align 8 dereferenceable(24) %34, ptr %27, ptr noundef nonnull align 8 dereferenceable(32) %1)
  br label %_ZNSt6vectorINSt7__cxx1112basic_stringIcSt11char_traitsIcESaIcEEESaIS5_EE12emplace_backIJRKS5_EEERS5_DpOT_.exit11

_ZNSt6vectorINSt7__cxx1112basic_stringIcSt11char_traitsIcESaIcEEESaIS5_EE12emplace_backIJRKS5_EEERS5_DpOT_.exit11: ; preds = %33, %30, %3
  ret void
}